#include <math.h>
#include <stdio.h>
#include <stdlib.h>
#include <string.h>

int main()
{
    int n,k;
    int c[1000];
    int i=0,j=0,A=0;
    scanf("%d%d",&n,&k);
    while(i<n)
    {
        scanf("%d",&c[i]);
        i++;
    }
    i=0;
    while(i<n)
    {
        j=i+1;
        while(j<n)
        {
            if(c[i]+c[j]==k) A=1;
            j++;
        }
        i++;
    }
    if(A==1) printf("yes");
    else printf("no");
    return 0;
}